; Function Attrs: mustprogress nofree norecurse nosync nounwind willreturn memory(read, inaccessiblemem: none) uwtable
define hidden noundef i32 @_ZNK3sat8aig_cuts9get_valueEj(ptr nocapture noundef nonnull readonly align 8 dereferenceable(480) %this, i32 noundef %v) local_unnamed_addr #5 align 2 {
entry:
  %m_aig = getelementptr inbounds i8, ptr %this, i64 24
  %0 = load ptr, ptr %m_aig, align 8
  %idxprom.i = zext i32 %v to i64
  %arrayidx.i = getelementptr inbounds %class.svector.8, ptr %0, i64 %idxprom.i
  %1 = load ptr, ptr %arrayidx.i, align 8
  %cmp.i = icmp eq ptr %1, null
  br i1 %cmp.i, label %cond.end, label %_ZNK6vectorIN3sat8aig_cuts4nodeELb0EjE4sizeEv.exit

_ZNK6vectorIN3sat8aig_cuts4nodeELb0EjE4sizeEv.exit: ; preds = %entry
  %arrayidx.i3 = getelementptr inbounds i8, ptr %1, i64 -4
  %2 = load i32, ptr %arrayidx.i3, align 4
  %cmp = icmp eq i32 %2, 1
  br i1 %cmp, label %land.lhs.true, label %cond.end

land.lhs.true:                                    ; preds = %_ZNK6vectorIN3sat8aig_cuts4nodeELb0EjE4sizeEv.exit
  %m_op.i.i = getelementptr inbounds i8, ptr %1, i64 4
  %3 = load i32, ptr %m_op.i.i, align 4
  %cmp.i.i = icmp eq i32 %3, 1
  %m_size.i.i = getelementptr inbounds i8, ptr %1, i64 16
  %4 = load i32, ptr %m_size.i.i, align 8
  %cmp.i6 = icmp eq i32 %4, 0
  %5 = select i1 %cmp.i.i, i1 %cmp.i6, i1 false
  br i1 %5, label %cond.true, label %cond.end

cond.true:                                        ; preds = %land.lhs.true
  %6 = load i8, ptr %1, align 8
  %7 = and i8 %6, 1
  %tobool.i.not = icmp eq i8 %7, 0
  %cond = select i1 %tobool.i.not, i32 1, i32 -1
  br label %cond.end

cond.end:                                         ; preds = %entry, %_ZNK6vectorIN3sat8aig_cuts4nodeELb0EjE4sizeEv.exit, %land.lhs.true, %cond.true
  %cond11 = phi i32 [ %cond, %cond.true ], [ 0, %land.lhs.true ], [ 0, %_ZNK6vectorIN3sat8aig_cuts4nodeELb0EjE4sizeEv.exit ], [ 0, %entry ]
  ret i32 %cond11
}